; ModuleID = '4/419.c'
source_filename = "4/419.c"
target datalayout = "e-m:e-p270:32:32-p271:32:32-p272:64:64-i64:64-f80:128-n8:16:32:64-S128"
target triple = "x86_64-pc-linux-gnu"

@.str = private unnamed_addr constant [5 x i8] c"%d%d\00", align 1
@.str.1 = private unnamed_addr constant [3 x i8] c"%d\00", align 1
@.str.2 = private unnamed_addr constant [4 x i8] c"%d\0A\00", align 1

; Function Attrs: noinline nounwind uwtable
define dso_local i32 @main() #0 {
  %1 = alloca i32, align 4
  %2 = alloca i32, align 4
  %3 = alloca i32, align 4
  %4 = alloca [100 x [100 x i32]], align 16
  %5 = alloca i32, align 4
  %6 = alloca i32, align 4
  %7 = alloca i32, align 4
  %8 = alloca i32, align 4
  %9 = alloca i32, align 4
  %10 = alloca i32, align 4
  %11 = alloca i32, align 4
  store i32 0, i32* %1, align 4
  %12 = bitcast [100 x [100 x i32]]* %4 to i8*
  call void @llvm.memset.p0i8.i64(i8* align 16 %12, i8 0, i64 40000, i1 false)
  %13 = call i32 (i8*, ...) @__isoc99_scanf(i8* getelementptr inbounds ([5 x i8], [5 x i8]* @.str, i64 0, i64 0), i32* %2, i32* %3)
  store i32 0, i32* %5, align 4
  br label %14

14:                                               ; preds = %35, %0
  %15 = load i32, i32* %5, align 4
  %16 = load i32, i32* %2, align 4
  %17 = icmp slt i32 %15, %16
  br i1 %17, label %18, label %38

18:                                               ; preds = %14
  store i32 0, i32* %6, align 4
  br label %19

19:                                               ; preds = %31, %18
  %20 = load i32, i32* %6, align 4
  %21 = load i32, i32* %3, align 4
  %22 = icmp slt i32 %20, %21
  br i1 %22, label %23, label %34

23:                                               ; preds = %19
  %24 = load i32, i32* %5, align 4
  %25 = sext i32 %24 to i64
  %26 = getelementptr inbounds [100 x [100 x i32]], [100 x [100 x i32]]* %4, i64 0, i64 %25
  %27 = load i32, i32* %6, align 4
  %28 = sext i32 %27 to i64
  %29 = getelementptr inbounds [100 x i32], [100 x i32]* %26, i64 0, i64 %28
  %30 = call i32 (i8*, ...) @__isoc99_scanf(i8* getelementptr inbounds ([3 x i8], [3 x i8]* @.str.1, i64 0, i64 0), i32* %29)
  br label %31

31:                                               ; preds = %23
  %32 = load i32, i32* %6, align 4
  %33 = add nsw i32 %32, 1
  store i32 %33, i32* %6, align 4
  br label %19

34:                                               ; preds = %19
  br label %35

35:                                               ; preds = %34
  %36 = load i32, i32* %5, align 4
  %37 = add nsw i32 %36, 1
  store i32 %37, i32* %5, align 4
  br label %14

38:                                               ; preds = %14
  store i32 0, i32* %7, align 4
  store i32 0, i32* %9, align 4
  store i32 0, i32* %8, align 4
  store i32 0, i32* %10, align 4
  br label %39

39:                                               ; preds = %96, %38
  %40 = load i32, i32* %8, align 4
  %41 = load i32, i32* %10, align 4
  %42 = add nsw i32 %40, %41
  %43 = load i32, i32* %2, align 4
  %44 = load i32, i32* %3, align 4
  %45 = add nsw i32 %43, %44
  %46 = icmp slt i32 %42, %45
  br i1 %46, label %47, label %97

47:                                               ; preds = %39
  %48 = load i32, i32* %7, align 4
  store i32 %48, i32* %5, align 4
  %49 = load i32, i32* %9, align 4
  store i32 %49, i32* %6, align 4
  br label %50

50:                                               ; preds = %69, %47
  %51 = load i32, i32* %5, align 4
  %52 = load i32, i32* %8, align 4
  %53 = icmp sle i32 %51, %52
  br i1 %53, label %54, label %58

54:                                               ; preds = %50
  %55 = load i32, i32* %6, align 4
  %56 = load i32, i32* %10, align 4
  %57 = icmp sge i32 %55, %56
  br label %58

58:                                               ; preds = %54, %50
  %59 = phi i1 [ false, %50 ], [ %57, %54 ]
  br i1 %59, label %60, label %74

60:                                               ; preds = %58
  %61 = load i32, i32* %5, align 4
  %62 = sext i32 %61 to i64
  %63 = getelementptr inbounds [100 x [100 x i32]], [100 x [100 x i32]]* %4, i64 0, i64 %62
  %64 = load i32, i32* %6, align 4
  %65 = sext i32 %64 to i64
  %66 = getelementptr inbounds [100 x i32], [100 x i32]* %63, i64 0, i64 %65
  %67 = load i32, i32* %66, align 4
  %68 = call i32 (i8*, ...) @printf(i8* getelementptr inbounds ([4 x i8], [4 x i8]* @.str.2, i64 0, i64 0), i32 %67)
  br label %69

69:                                               ; preds = %60
  %70 = load i32, i32* %5, align 4
  %71 = add nsw i32 %70, 1
  store i32 %71, i32* %5, align 4
  %72 = load i32, i32* %6, align 4
  %73 = add nsw i32 %72, -1
  store i32 %73, i32* %6, align 4
  br label %50

74:                                               ; preds = %58
  %75 = load i32, i32* %9, align 4
  %76 = load i32, i32* %3, align 4
  %77 = sub nsw i32 %76, 1
  %78 = icmp slt i32 %75, %77
  br i1 %78, label %79, label %82

79:                                               ; preds = %74
  %80 = load i32, i32* %9, align 4
  %81 = add nsw i32 %80, 1
  store i32 %81, i32* %9, align 4
  br label %85

82:                                               ; preds = %74
  %83 = load i32, i32* %7, align 4
  %84 = add nsw i32 %83, 1
  store i32 %84, i32* %7, align 4
  br label %85

85:                                               ; preds = %82, %79
  %86 = load i32, i32* %8, align 4
  %87 = load i32, i32* %2, align 4
  %88 = sub nsw i32 %87, 1
  %89 = icmp slt i32 %86, %88
  br i1 %89, label %90, label %93

90:                                               ; preds = %85
  %91 = load i32, i32* %8, align 4
  %92 = add nsw i32 %91, 1
  store i32 %92, i32* %8, align 4
  br label %96

93:                                               ; preds = %85
  %94 = load i32, i32* %10, align 4
  %95 = add nsw i32 %94, 1
  store i32 %95, i32* %10, align 4
  br label %96

96:                                               ; preds = %93, %90
  br label %39

97:                                               ; preds = %39
  ret i32 0
}

; Function Attrs: argmemonly nounwind willreturn
declare void @llvm.memset.p0i8.i64(i8* nocapture writeonly, i8, i64, i1 immarg) #1

declare dso_local i32 @__isoc99_scanf(i8*, ...) #2

declare dso_local i32 @printf(i8*, ...) #2


!llvm.module.flags = !{!0}
!llvm.ident = !{!1}

!0 = !{i32 1, !"wchar_size", i32 4}
!1 = !{!"clang version 10.0.0-4ubuntu1 "}
